target datalayout = "e-m:e-p270:32:32-p271:32:32-p272:64:64-i64:64-i128:128-f80:128-n8:16:32:64-S128"
target triple = "x86_64-pc-linux-gnu"

%struct.string_list = type { ptr, i64, i64, i8, ptr }
%struct.string_list_item = type { ptr, ptr }

@.str.21 = private unnamed_addr constant [1 x i8] zeroinitializer, align 1
@.str.24 = private unnamed_addr constant [3 x i8] c", \00", align 1
@.str.32 = private unnamed_addr constant [5 x i8] c"%s%s\00", align 1
@.str.33 = private unnamed_addr constant [8 x i8] c" and %s\00", align 1

; Function Attrs: inlinehint nounwind uwtable
define internal void @strbuf_addstr(ptr noundef %0, ptr noundef %1) #4 {
  %3 = alloca ptr, align 8
  %4 = alloca ptr, align 8
  store ptr %0, ptr %3, align 8, !tbaa !18
  store ptr %1, ptr %4, align 8, !tbaa !4
  %5 = load ptr, ptr %3, align 8, !tbaa !18
  %6 = load ptr, ptr %4, align 8, !tbaa !4
  %7 = load ptr, ptr %4, align 8, !tbaa !4
  %8 = call i64 @strlen(ptr noundef %7) #9
  call void @strbuf_add(ptr noundef %5, ptr noundef %6, i64 noundef %8)
  ret void
}

; Function Attrs: nounwind uwtable
define internal void @print_joined(ptr noundef %0, ptr noundef %1, ptr noundef %2, ptr noundef %3) #0 {
  %5 = alloca ptr, align 8
  %6 = alloca ptr, align 8
  %7 = alloca ptr, align 8
  %8 = alloca ptr, align 8
  %9 = alloca i32, align 4
  store ptr %0, ptr %5, align 8, !tbaa !4
  store ptr %1, ptr %6, align 8, !tbaa !4
  store ptr %2, ptr %7, align 8, !tbaa !160
  store ptr %3, ptr %8, align 8, !tbaa !18
  %10 = load ptr, ptr %7, align 8, !tbaa !160
  %11 = getelementptr inbounds nuw %struct.string_list, ptr %10, i32 0, i32 1
  %12 = load i64, ptr %11, align 8, !tbaa !32
  %13 = icmp eq i64 %12, 0
  br i1 %13, label %14, label %15

14:                                               ; preds = %4
  br label %68

15:                                               ; preds = %4
  %16 = load ptr, ptr %7, align 8, !tbaa !160
  %17 = getelementptr inbounds nuw %struct.string_list, ptr %16, i32 0, i32 1
  %18 = load i64, ptr %17, align 8, !tbaa !32
  %19 = icmp eq i64 %18, 1
  br i1 %19, label %20, label %29

20:                                               ; preds = %15
  %21 = load ptr, ptr %8, align 8, !tbaa !18
  %22 = load ptr, ptr %5, align 8, !tbaa !4
  %23 = load ptr, ptr %7, align 8, !tbaa !160
  %24 = getelementptr inbounds nuw %struct.string_list, ptr %23, i32 0, i32 0
  %25 = load ptr, ptr %24, align 8, !tbaa !82
  %26 = getelementptr inbounds %struct.string_list_item, ptr %25, i64 0
  %27 = getelementptr inbounds nuw %struct.string_list_item, ptr %26, i32 0, i32 0
  %28 = load ptr, ptr %27, align 8, !tbaa !83
  call void (ptr, ptr, ...) @strbuf_addf(ptr noundef %21, ptr noundef @.str.32, ptr noundef %22, ptr noundef %28)
  br label %68

29:                                               ; preds = %15
  call void @llvm.lifetime.start.p0(i64 4, ptr %9) #10
  %30 = load ptr, ptr %8, align 8, !tbaa !18
  %31 = load ptr, ptr %6, align 8, !tbaa !4
  call void @strbuf_addstr(ptr noundef %30, ptr noundef %31)
  store i32 0, ptr %9, align 4, !tbaa !15
  br label %32

32:                                               ; preds = %53, %29
  %33 = load i32, ptr %9, align 4, !tbaa !15
  %34 = sext i32 %33 to i64
  %35 = load ptr, ptr %7, align 8, !tbaa !160
  %36 = getelementptr inbounds nuw %struct.string_list, ptr %35, i32 0, i32 1
  %37 = load i64, ptr %36, align 8, !tbaa !32
  %38 = sub i64 %37, 1
  %39 = icmp ult i64 %34, %38
  br i1 %39, label %40, label %56

40:                                               ; preds = %32
  %41 = load ptr, ptr %8, align 8, !tbaa !18
  %42 = load i32, ptr %9, align 4, !tbaa !15
  %43 = icmp sgt i32 %42, 0
  %44 = select i1 %43, ptr @.str.24, ptr @.str.21
  %45 = load ptr, ptr %7, align 8, !tbaa !160
  %46 = getelementptr inbounds nuw %struct.string_list, ptr %45, i32 0, i32 0
  %47 = load ptr, ptr %46, align 8, !tbaa !82
  %48 = load i32, ptr %9, align 4, !tbaa !15
  %49 = sext i32 %48 to i64
  %50 = getelementptr inbounds %struct.string_list_item, ptr %47, i64 %49
  %51 = getelementptr inbounds nuw %struct.string_list_item, ptr %50, i32 0, i32 0
  %52 = load ptr, ptr %51, align 8, !tbaa !83
  call void (ptr, ptr, ...) @strbuf_addf(ptr noundef %41, ptr noundef @.str.32, ptr noundef %44, ptr noundef %52)
  br label %53

53:                                               ; preds = %40
  %54 = load i32, ptr %9, align 4, !tbaa !15
  %55 = add nsw i32 %54, 1
  store i32 %55, ptr %9, align 4, !tbaa !15
  br label %32, !llvm.loop !161

56:                                               ; preds = %32
  %57 = load ptr, ptr %8, align 8, !tbaa !18
  %58 = load ptr, ptr %7, align 8, !tbaa !160
  %59 = getelementptr inbounds nuw %struct.string_list, ptr %58, i32 0, i32 0
  %60 = load ptr, ptr %59, align 8, !tbaa !82
  %61 = load ptr, ptr %7, align 8, !tbaa !160
  %62 = getelementptr inbounds nuw %struct.string_list, ptr %61, i32 0, i32 1
  %63 = load i64, ptr %62, align 8, !tbaa !32
  %64 = sub i64 %63, 1
  %65 = getelementptr inbounds nuw %struct.string_list_item, ptr %60, i64 %64
  %66 = getelementptr inbounds nuw %struct.string_list_item, ptr %65, i32 0, i32 0
  %67 = load ptr, ptr %66, align 8, !tbaa !83
  call void (ptr, ptr, ...) @strbuf_addf(ptr noundef %57, ptr noundef @.str.33, ptr noundef %67)
  call void @llvm.lifetime.end.p0(i64 4, ptr %9) #10
  br label %68

68:                                               ; preds = %14, %56, %20
  ret void
}