; Function Attrs: nounwind uwtable
define internal fastcc void @print_joined(ptr noundef %0, ptr noundef %1, ptr noundef readonly captures(none) %2, ptr noundef %3) unnamed_addr #0 {
  %5 = getelementptr inbounds nuw i8, ptr %2, i64 8
  %6 = load i64, ptr %5, align 8, !tbaa !65
  switch i64 %6, label %10 [
    i64 0, label %23
    i64 1, label %7
  ]

7:                                                ; preds = %4
  %8 = load ptr, ptr %2, align 8, !tbaa !66
  %9 = load ptr, ptr %8, align 8, !tbaa !67
  tail call void (ptr, ptr, ...) @strbuf_addf(ptr noundef %3, ptr noundef nonnull @.str.32, ptr noundef %0, ptr noundef %9) #13
  br label %23

10:                                               ; preds = %4
  %11 = tail call i64 @strlen(ptr noundef nonnull dereferenceable(1) %1) #12
  tail call void @strbuf_add(ptr noundef %3, ptr noundef nonnull %1, i64 noundef %11) #13
  %12 = load i64, ptr %5, align 8, !tbaa !65
  %.not20 = icmp eq i64 %12, 1
  br i1 %.not20, label %._crit_edge, label %.lr.ph

.lr.ph:                                           ; preds = %10, %.lr.ph
  %indvars.iv = phi i64 [ %indvars.iv.next, %.lr.ph ], [ 0, %10 ]
  %.not = icmp eq i64 %indvars.iv, 0
  %13 = select i1 %.not, ptr @.str.21, ptr @.str.24
  %14 = load ptr, ptr %2, align 8, !tbaa !66
  %15 = getelementptr inbounds nuw %struct.string_list_item, ptr %14, i64 %indvars.iv
  %16 = load ptr, ptr %15, align 8, !tbaa !67
  tail call void (ptr, ptr, ...) @strbuf_addf(ptr noundef %3, ptr noundef nonnull @.str.32, ptr noundef nonnull %13, ptr noundef %16) #13
  %indvars.iv.next = add nuw nsw i64 %indvars.iv, 1
  %17 = load i64, ptr %5, align 8, !tbaa !65
  %18 = add i64 %17, -1
  %19 = icmp ugt i64 %18, %indvars.iv.next
  br i1 %19, label %.lr.ph, label %._crit_edge, !llvm.loop !135

._crit_edge:                                      ; preds = %.lr.ph, %10
  %.lcssa = phi i64 [ 0, %10 ], [ %18, %.lr.ph ]
  %20 = load ptr, ptr %2, align 8, !tbaa !66
  %21 = getelementptr inbounds nuw %struct.string_list_item, ptr %20, i64 %.lcssa
  %22 = load ptr, ptr %21, align 8, !tbaa !67
  tail call void (ptr, ptr, ...) @strbuf_addf(ptr noundef %3, ptr noundef nonnull @.str.33, ptr noundef %22) #13
  br label %23

23:                                               ; preds = %4, %._crit_edge, %7
  ret void
}